target datalayout = "e-m:e-p270:32:32-p271:32:32-p272:64:64-i64:64-i128:128-f80:128-n8:16:32:64-S128"
target triple = "x86_64-pc-linux-gnu"

%struct.VHeader_ = type { i32, i32, [0 x i8] }

; Function Attrs: nounwind uwtable
define dso_local ptr @riscv_create_params(ptr noundef %0, i1 noundef zeroext %1, ptr noundef %2, ptr noundef %3) #0 {
  %5 = alloca i32, align 4
  %6 = alloca ptr, align 8
  %7 = alloca ptr, align 8
  %8 = alloca ptr, align 8
  %9 = alloca ptr, align 8
  %10 = alloca i8, align 1
  %11 = alloca ptr, align 8
  %12 = alloca ptr, align 8
  %13 = alloca i32, align 4
  %14 = alloca ptr, align 8
  %15 = alloca i32, align 4
  store ptr %0, ptr %9, align 8
  %16 = zext i1 %1 to i8
  store i8 %16, ptr %10, align 1
  store ptr %2, ptr %11, align 8
  store ptr %3, ptr %12, align 8
  %17 = load ptr, ptr %9, align 8
  store ptr %17, ptr %6, align 8
  %18 = load ptr, ptr %6, align 8
  %19 = icmp ne ptr %18, null
  br i1 %19, label %21, label %20

20:                                               ; preds = %4
  store i32 0, ptr %5, align 4
  br label %26

21:                                               ; preds = %4
  %22 = load ptr, ptr %6, align 8
  store ptr %22, ptr %7, align 8
  %23 = load ptr, ptr %7, align 8
  %24 = getelementptr inbounds %struct.VHeader_, ptr %23, i64 -1
  %25 = load i32, ptr %24, align 4
  store i32 %25, ptr %5, align 4
  br label %26

26:                                               ; preds = %21, %20
  %27 = load i32, ptr %5, align 4
  store i32 %27, ptr %13, align 4
  %28 = load i32, ptr %13, align 4
  %29 = icmp ne i32 %28, 0
  br i1 %29, label %31, label %30

30:                                               ; preds = %26
  store ptr null, ptr %8, align 8
  br label %61

31:                                               ; preds = %26
  %32 = load i32, ptr %13, align 4
  %33 = zext i32 %32 to i64
  %34 = mul i64 32, %33
  %35 = call ptr @calloc_arena(i64 noundef %34)
  store ptr %35, ptr %14, align 8
  store i32 0, ptr %15, align 4
  br label %36

36:                                               ; preds = %56, %31
  %37 = load i32, ptr %15, align 4
  %38 = load i32, ptr %13, align 4
  %39 = icmp ult i32 %37, %38
  br i1 %39, label %40, label %59

40:                                               ; preds = %36
  %41 = load ptr, ptr %9, align 8
  %42 = load i32, ptr %15, align 4
  %43 = zext i32 %42 to i64
  %44 = getelementptr inbounds ptr, ptr %41, i64 %43
  %45 = load ptr, ptr %44, align 8
  %46 = call ptr @type_lowering(ptr noundef %45)
  %47 = load i8, ptr %10, align 1
  %48 = trunc i8 %47 to i1
  %49 = load ptr, ptr %11, align 8
  %50 = load ptr, ptr %12, align 8
  %51 = call ptr @riscv_classify_argument_type(ptr noundef %46, i1 noundef zeroext %48, ptr noundef %49, ptr noundef %50)
  %52 = load ptr, ptr %14, align 8
  %53 = load i32, ptr %15, align 4
  %54 = zext i32 %53 to i64
  %55 = getelementptr inbounds ptr, ptr %52, i64 %54
  store ptr %51, ptr %55, align 8
  br label %56

56:                                               ; preds = %40
  %57 = load i32, ptr %15, align 4
  %58 = add i32 %57, 1
  store i32 %58, ptr %15, align 4
  br label %36, !llvm.loop !7

59:                                               ; preds = %36
  %60 = load ptr, ptr %14, align 8
  store ptr %60, ptr %8, align 8
  br label %61

61:                                               ; preds = %59, %30
  %62 = load ptr, ptr %8, align 8
  ret ptr %62
}