; Function Attrs: nounwind uwtable
define dso_local ptr @riscv_create_params(ptr noundef readonly %0, i1 noundef zeroext %1, ptr nocapture noundef %2, ptr nocapture noundef %3) local_unnamed_addr #0 {
  %.not = icmp eq ptr %0, null
  br i1 %.not, label %.thread, label %5

5:                                                ; preds = %4
  %6 = getelementptr inbounds i8, ptr %0, i64 -8
  %7 = load i32, ptr %6, align 4
  %.not21 = icmp eq i32 %7, 0
  br i1 %.not21, label %.thread, label %8

8:                                                ; preds = %5
  %9 = zext i32 %7 to i64
  %10 = shl nuw nsw i64 %9, 5
  %11 = tail call ptr @calloc_arena(i64 noundef %10) #5
  br label %12

12:                                               ; preds = %8, %12
  %indvars.iv = phi i64 [ 0, %8 ], [ %indvars.iv.next, %12 ]
  %13 = getelementptr inbounds ptr, ptr %0, i64 %indvars.iv
  %14 = load ptr, ptr %13, align 8
  %15 = tail call fastcc ptr @type_lowering(ptr noundef %14)
  %16 = tail call fastcc ptr @riscv_classify_argument_type(ptr noundef %15, i1 noundef zeroext %1, ptr noundef %2, ptr noundef %3)
  %17 = getelementptr inbounds ptr, ptr %11, i64 %indvars.iv
  store ptr %16, ptr %17, align 8
  %indvars.iv.next = add nuw nsw i64 %indvars.iv, 1
  %exitcond.not = icmp eq i64 %indvars.iv.next, %9
  br i1 %exitcond.not, label %.thread, label %12, !llvm.loop !7

.thread:                                          ; preds = %12, %4, %5
  %.019 = phi ptr [ null, %5 ], [ null, %4 ], [ %11, %12 ]
  ret ptr %.019
}